target datalayout = "e-m:e-p270:32:32-p271:32:32-p272:64:64-i64:64-i128:128-f80:128-n8:16:32:64-S128"
target triple = "x86_64-pc-linux-gnu"

%struct._lv_global_t = type { i8, i8, %struct.lv_ll_t, ptr, ptr, %struct.lv_ll_t, i8, i32, i32, ptr, %struct.lv_ll_t, ptr, %struct.lv_ll_t, ptr, ptr, i32, ptr, i8, i32, i32, ptr, i32, %struct.lv_timer_state_t, %struct.lv_anim_state_t, %struct.lv_tick_state_t, %struct._lv_draw_buf_handlers_t, %struct._lv_draw_buf_handlers_t, %struct._lv_draw_buf_handlers_t, %struct.lv_ll_t, ptr, ptr, %struct.lv_draw_global_info_t, [4 x %struct.lv_draw_sw_mask_radius_circle_dsc_t], ptr, ptr, ptr, %struct.lv_tlsf_state_t, %struct.lv_ll_t, ptr, ptr, %struct.lv_style_t, i64, ptr, i32, ptr }
%struct.lv_timer_state_t = type { %struct.lv_ll_t, i8, i8, i8, i8, i32, i8, i32, i32, i32, i32, ptr, ptr }
%struct.lv_anim_state_t = type { i8, i8, ptr, %struct.lv_ll_t }
%struct.lv_tick_state_t = type { i32, i8, ptr, ptr }
%struct._lv_draw_buf_handlers_t = type { ptr, ptr, ptr, ptr, ptr, ptr }
%struct.lv_draw_global_info_t = type { ptr, i32, i32, i32, i32, i8 }
%struct.lv_draw_sw_mask_radius_circle_dsc_t = type { ptr, ptr, ptr, ptr, i32, i32, i32 }
%struct.lv_tlsf_state_t = type { ptr, i64, i64, %struct.lv_ll_t }
%struct.lv_ll_t = type { i32, ptr, ptr }
%struct.lv_style_t = type { ptr, i32, i8 }

@lv_global = external global %struct._lv_global_t, align 8

; Function Attrs: nounwind uwtable
define zeroext i8 @lv_style_prop_lookup_flags(i8 noundef zeroext %0) #0 {
  %2 = alloca i8, align 1
  %3 = alloca i8, align 1
  store i8 %0, ptr %3, align 1, !tbaa !13
  %4 = load i8, ptr %3, align 1, !tbaa !13
  %5 = zext i8 %4 to i32
  %6 = icmp eq i32 %5, 255
  br i1 %6, label %7, label %8

7:                                                ; preds = %1
  store i8 63, ptr %2, align 1
  br label %41

8:                                                ; preds = %1
  %9 = load i8, ptr %3, align 1, !tbaa !13
  %10 = zext i8 %9 to i32
  %11 = icmp eq i32 %10, 0
  br i1 %11, label %12, label %13

12:                                               ; preds = %8
  store i8 0, ptr %2, align 1
  br label %41

13:                                               ; preds = %8
  %14 = load i8, ptr %3, align 1, !tbaa !13
  %15 = zext i8 %14 to i32
  %16 = icmp slt i32 %15, 141
  br i1 %16, label %17, label %22

17:                                               ; preds = %13
  %18 = load i8, ptr %3, align 1, !tbaa !13
  %19 = zext i8 %18 to i64
  %20 = getelementptr inbounds nuw [141 x i8], ptr @lv_style_builtin_prop_flag_lookup_table, i64 0, i64 %19
  %21 = load i8, ptr %20, align 1, !tbaa !13
  store i8 %21, ptr %2, align 1
  br label %41

22:                                               ; preds = %13
  %23 = load i8, ptr %3, align 1, !tbaa !13
  %24 = zext i8 %23 to i32
  %25 = sub nsw i32 %24, 141
  %26 = trunc i32 %25 to i8
  store i8 %26, ptr %3, align 1, !tbaa !13
  %27 = load ptr, ptr getelementptr inbounds nuw (%struct._lv_global_t, ptr @lv_global, i32 0, i32 9), align 8, !tbaa !14
  %28 = icmp ne ptr %27, null
  br i1 %28, label %29, label %40

29:                                               ; preds = %22
  %30 = load i8, ptr %3, align 1, !tbaa !13
  %31 = zext i8 %30 to i32
  %32 = load i32, ptr getelementptr inbounds nuw (%struct._lv_global_t, ptr @lv_global, i32 0, i32 7), align 4, !tbaa !24
  %33 = icmp ult i32 %31, %32
  br i1 %33, label %34, label %40

34:                                               ; preds = %29
  %35 = load ptr, ptr getelementptr inbounds nuw (%struct._lv_global_t, ptr @lv_global, i32 0, i32 9), align 8, !tbaa !14
  %36 = load i8, ptr %3, align 1, !tbaa !13
  %37 = zext i8 %36 to i64
  %38 = getelementptr inbounds nuw i8, ptr %35, i64 %37
  %39 = load i8, ptr %38, align 1, !tbaa !13
  store i8 %39, ptr %2, align 1
  br label %41

40:                                               ; preds = %29, %22
  store i8 0, ptr %2, align 1
  br label %41

41:                                               ; preds = %40, %34, %17, %12, %7
  %42 = load i8, ptr %2, align 1
  ret i8 %42
}