; Function Attrs: mustprogress nofree norecurse nosync nounwind willreturn memory(read, inaccessiblemem: none) uwtable
define zeroext i8 @lv_style_prop_lookup_flags(i8 noundef zeroext %0) local_unnamed_addr #6 {
  switch i8 %0, label %3 [
    i8 -1, label %20
    i8 0, label %2
  ]

2:                                                ; preds = %1
  br label %20

3:                                                ; preds = %1
  %4 = icmp ult i8 %0, -115
  br i1 %4, label %5, label %9

5:                                                ; preds = %3
  %6 = zext i8 %0 to i64
  %7 = getelementptr inbounds nuw [141 x i8], ptr @lv_style_builtin_prop_flag_lookup_table, i64 0, i64 %6
  %8 = load i8, ptr %7, align 1, !tbaa !23
  br label %20

9:                                                ; preds = %3
  %10 = add nsw i8 %0, 115
  %11 = load ptr, ptr getelementptr inbounds nuw (i8, ptr @lv_global, i64 88), align 8, !tbaa !10
  %.not = icmp eq ptr %11, null
  br i1 %.not, label %20, label %12

12:                                               ; preds = %9
  %13 = zext nneg i8 %10 to i32
  %14 = load i32, ptr getelementptr inbounds nuw (i8, ptr @lv_global, i64 76), align 4, !tbaa !21
  %15 = icmp ugt i32 %14, %13
  br i1 %15, label %16, label %20

16:                                               ; preds = %12
  %17 = zext nneg i8 %10 to i64
  %18 = getelementptr inbounds nuw i8, ptr %11, i64 %17
  %19 = load i8, ptr %18, align 1, !tbaa !23
  br label %20

20:                                               ; preds = %9, %12, %1, %16, %5, %2
  %.0 = phi i8 [ 0, %2 ], [ %8, %5 ], [ %19, %16 ], [ 63, %1 ], [ 0, %12 ], [ 0, %9 ]
  ret i8 %.0
}